(dp1
S'Ringmaster'
p2
S'(S"\\xa4\\xf3\\x0f\\xb9\\xc8F\'\\xdf\\xa9\\xef\\xb4\\xf3\\xfd\\x970\\x9f\\n\\x9a\\xe3M"\np1\n(lp2\nccopy_reg\n_reconstructor\np3\n(centities\nItem\np4\nc__builtin__\nobject\np5\nNtRp6\n(dp7\nS\'stackable\'\np8\nI00\nsS\'weapon\'\np9\nNsS\'ammo\'\np10\nNsS\'capacity\'\np11\nI0\nsS\'name\'\np12\nS\'a delicious chocolate chunk cookie\'\np13\nsS\'_keywords\'\np14\n(lp15\nS\'cookie\'\np16\nasS\'money\'\np17\nI0\nsS\'max_quantity\'\np18\nI1\nsS\'_desc\'\np19\nS\'The cookie has a delicious, gooey smell of freshly-baked\\r\\ndough.\'\np20\nsS\'_short_multiple\'\np21\nS\'A delicious cholocate chunk cookie sits here.\'\np22\nsS\'flags\'\np23\n(lp24\nsS\'location\'\np25\nS\'\'\nsS\'_short\'\np26\ng22\nsS\'id\'\np27\ng3\n(cuuid\nUUID\np28\ng5\nNtRp29\n(dp30\nS\'int\'\np31\nL331216020068100501106760730229778529074L\nsbsS\'_quantity\'\np32\nI1\nsS\'wearable\'\np33\nNsS\'contents\'\np34\n(lp35\nsbag3\n(g4\ng5\nNtRp36\n(dp37\ng8\nI00\nsg9\ng3\n(centities\nWeapon\np38\ng5\nNtRp39\n(dp40\nS\'accuracy_multiplier\'\np41\nF0.69999999999999996\nsS\'weapon_type\'\np42\nS\'bow\'\np43\nsS\'strength_multiplier\'\np44\nF0\nsS\'damage\'\np45\n(dp46\nsS\'two_handed\'\np47\nI00\nsbsg10\nNsg11\nI0\nsg12\nS\'a simple longbow\'\np48\nsg14\n(lp49\nS\'longbow\'\np50\nasg17\nI0\nsg18\nI1\nsg19\nS\'The longbow is created out of a non-specific wood, and is\\r\\ntied together rather plainly.\'\np51\nsg21\nS\'a simple longbow lies here\'\np52\nsg23\n(lp53\nsg25\nS\'\'\nsg26\ng52\nsg27\ng3\n(g28\ng5\nNtRp54\n(dp55\ng31\nL30636583412532149901778007263844019120L\nsbsg32\nI1\nsg33\nNsg34\n(lp56\nsbag3\n(g4\ng5\nNtRp57\n(dp58\ng8\nI01\nsg11\nI0\nsg12\nS\'a crudely fashioned arrow\'\np59\nsg14\n(lp60\nS\'arrows\'\np61\nasg34\n(lp62\nsg17\nI0\nsg9\nNsg19\nS\'The arrow looks crudely fashioned.\'\np63\nsg27\ng3\n(g28\ng5\nNtRp64\n(dp65\ng31\nL145559668322276593511354457500512125094L\nsbsg21\nS\'some crudely fashioned arrows lie here\'\np66\nsg23\n(lp67\nsg25\nS\'\'\nsg26\nS\'a crudely fashioned arrow lies here\'\np68\nsg32\nI10\nsg33\nNsg18\nI99\nsg10\ng3\n(centities\nAmmo\np69\ng5\nNtRp70\n(dp71\nS\'ammo_type\'\np72\nS\'arrow\'\np73\nsg45\n(dp74\nS\'puncture\'\np75\nF1\nssbsbag3\n(g4\ng5\nNtRp76\n(dp77\ng8\nI00\nsg9\ng3\n(g38\ng5\nNtRp78\n(dp79\ng41\nF1\nsg42\nS\'sword\'\np80\nsg44\nF0\nsg45\n(dp81\nS\'impact\'\np82\nF0.14999999999999999\nsS\'puncture\'\np83\nF0.14999999999999999\nsS\'slash\'\np84\nF0.69999999999999996\nssg47\nI00\nsbsg10\nNsg11\nI0\nsg12\nS\'a gleaming longsword\'\np85\nsg14\n(lp86\nS\'longsword\'\np87\nasg17\nI0\nsg18\nI1\nsg19\nS\'The longsword gleams from a fresh polish.\'\np88\nsg21\nS\'a gleaming longsword is here.\'\np89\nsg23\n(lp90\nsg25\nS\'\'\nsg26\ng89\nsg27\ng3\n(g28\ng5\nNtRp91\n(dp92\ng31\nL109773351582606444235483236460499792855L\nsbsg32\nI1\nsg33\nNsg34\n(lp93\nsbag3\n(g4\ng5\nNtRp94\n(dp95\ng8\nI00\nsg9\ng3\n(g38\ng5\nNtRp96\n(dp97\ng41\nF1\nsg42\nS\'greatsword\'\np98\nsg44\nF0\nsg45\n(dp99\nS\'puncture\'\np100\nF0.29999999999999999\nsS\'slash\'\np101\nF1.2\nssg47\nI00\nsbsg10\nNsg11\nI0\nsg12\nS\'an ordinary claymore\'\np102\nsg14\n(lp103\nS\'claymore\'\np104\nasg17\nI0\nsg18\nI1\nsg19\nS\'The claymore is ordinary, but massive. Taking too many\\r\\nstrikes from this will hurt something fierce.\'\np105\nsg21\nS\'an ordinary claymore lies here.\'\np106\nsg23\n(lp107\nsg25\nS\'\'\nsg26\ng106\nsg27\ng3\n(g28\ng5\nNtRp108\n(dp109\ng31\nL29533875084898886554923242210399022176L\nsbsg32\nI1\nsg33\nNsg34\n(lp110\nsba(lp111\ng3\n(g4\ng5\nNtRp112\n(dp113\ng8\nI00\nsg9\nNsg10\nNsg11\nI0\nsg12\nS\'a puffy blue polo shirt\'\np114\nsg14\n(lp115\nS\'shirt\'\np116\naS\'polo\'\np117\nasg17\nI0\nsg18\nI1\nsg19\nS\'The shirt looks only slightly worn and exceedingly puffy,\\r\\nbut otherwise is in good condition.\'\np118\nsg21\nS\'A puffy blue polo shirt is here.\'\np119\nsg23\n(lp120\nsg25\nS\'\'\nsg26\ng119\nsg27\ng3\n(g28\ng5\nNtRp121\n(dp122\ng31\nL332801575692120774913600117621082972049L\nsbsg32\nI1\nsg33\ng3\n(centities\nWearable\np123\ng5\nNtRp124\n(dp125\nS\'absorption\'\np126\n(dp127\nS\'puncture\'\np128\nI4\nssS\'bonuses\'\np129\n(lp130\nsS\'protection\'\np131\n(dp132\nS\'slash\'\np133\nF0.12\nssS\'worn_position\'\np134\nS\'torso\'\np135\nsbsg34\n(lp136\nsbag3\n(g4\ng5\nNtRp137\n(dp138\ng8\nI00\nsg9\nNsg10\nNsg11\nI0\nsg12\nS\'a shining gold ring\'\np139\nsg14\n(lp140\nS\'ring\'\np141\nasg17\nI0\nsg18\nI1\nsg19\nS\'The ring shines with a mystical power.\'\np142\nsg21\nS\'a shining gold ring lies here\'\np143\nsg23\n(lp144\nsg25\nS\'\'\nsg26\ng143\nsg27\ng3\n(g28\ng5\nNtRp145\n(dp146\ng31\nL279603651559852688152331920606876150326L\nsbsg32\nI1\nsg33\ng3\n(g123\ng5\nNtRp147\n(dp148\ng126\n(dp149\nsg129\n(lp150\ng3\n(cdurations\nBonus\np151\ng5\nNtRp152\n(dp153\nS\'stat\'\np154\nS\'agility\'\np155\nsS\'bonus_duration\'\np156\nI-999\nsS\'start_time\'\np157\nF1366557422.6659999\nsS\'value\'\np158\nF3\nsS\'duration_in_secs\'\np159\nI0\nsS\'source\'\np160\ng145\nsS\'operator\'\np161\nS\'+\'\nsS\'context\'\np162\n(lp163\nS\'dodging\'\np164\naS\'retreating\'\np165\nasS\'infinite\'\np166\nI01\nsS\'type\'\np167\nS\'worn\'\np168\nsS\'condition\'\np169\nS\'auto\'\np170\nsbasg131\n(dp171\nsg134\nS\'fingers\'\np172\nsbsg34\n(lp173\nsbag3\n(g4\ng5\nNtRp174\n(dp175\ng8\nI00\nsg9\nNsg10\nNsg11\nI0\nsg12\nS\'a gaudy looking monocle\'\np176\nsg14\n(lp177\nS\'monocle\'\np178\nasg17\nI0\nsg18\nI1\nsg19\nS\'Looking through the glass of the monocle, you notice\\r\\neverything seems much clearer. Things that would ordinarily\\r\\nbe obscured seem to stand out\'\np179\nsg21\nS\'a monocle sits here\'\np180\nsg23\n(lp181\nsg25\nS\'\'\nsg26\ng180\nsg27\ng3\n(g28\ng5\nNtRp182\n(dp183\ng31\nL128583528921071986340580024263250005436L\nsbsg32\nI1\nsg33\ng3\n(g123\ng5\nNtRp184\n(dp185\ng126\n(dp186\nsg129\n(lp187\ng3\n(g151\ng5\nNtRp188\n(dp189\ng154\nS\'perception\'\np190\nsg156\nI35\nsg157\nF1366557512.098\nsg158\nF17\nsg159\nI35\nsg160\ng182\nsg161\nS\'+\'\nsg162\n(lp191\nS\'all\'\np192\nasg166\nI00\nsg167\ng168\nsg169\nS\'auto\'\np193\nsbasg131\n(dp194\nsg134\nS\'head\'\np195\nsbsg34\n(lp196\nsba(lp197\ng3\n(g4\ng5\nNtRp198\n(dp199\ng8\nI00\nsg9\ng3\n(g38\ng5\nNtRp200\n(dp201\ng41\nF1\nsg42\nS\'spear\'\np202\nsg44\nF0\nsg45\n(dp203\nS\'puncture\'\np204\nF1\nssg47\nI00\nsbsg10\nNsg11\nI0\nsg12\nS\'a wooden spear\'\np205\nsg14\n(lp206\nS\'spear\'\np207\nasg17\nI0\nsg18\nI1\nsg19\nS\'A simple wooden spear with a pointed tip. Not much for\\r\\nornamentation but certainly enough to skewer an adversary\\r\\nat quite a distance.\'\np208\nsg21\nS\'a wooden spear lies here.\'\np209\nsg23\n(lp210\nsg25\nS\'\'\nsg26\ng209\nsg27\ng3\n(g28\ng5\nNtRp211\n(dp212\ng31\nL164153236501576724139014226158646810977L\nsbsg32\nI1\nsg33\nNsg34\n(lp213\nsba(dp214\nS\'discipline\'\np215\nI4\nsS\'agility\'\np216\nI3\nsS\'strength\'\np217\nI5\nsS\'intelligence\'\np218\nI4\nsS\'charisma\'\np219\nI3\nsS\'perception\'\np220\nI4\nsI0\nS\'Male\'\np221\nS\'Human\'\np222\nI18\n(lp223\nS\'brawling\'\np224\naS\'lancer\'\np225\naS\'butcher\'\np226\na(dp227\nS\'bare handed\'\np228\ng224\nsS\'spear\'\np229\ng225\nsS\'knife\'\np230\ng226\nsg225\nt.'
p3
s.